; Function Attrs: nounwind uwtable
define internal void @ConvertBGRAToBGR_SSE41(ptr noalias noundef %0, i32 noundef %1, ptr noalias noundef %2) #1 {
  %4 = icmp sgt i32 %1, 15
  br i1 %4, label %.lr.ph, label %._crit_edge

.lr.ph:                                           ; preds = %3, %.lr.ph
  %.040 = phi i32 [ %23, %.lr.ph ], [ %1, %3 ]
  %.03639 = phi ptr [ %21, %.lr.ph ], [ %0, %3 ]
  %.03738 = phi ptr [ %22, %.lr.ph ], [ %2, %3 ]
  %5 = load <16 x i8>, ptr %.03639, align 1, !tbaa !11
  %6 = getelementptr inbounds nuw i8, ptr %.03639, i64 16
  %7 = load <16 x i8>, ptr %6, align 1, !tbaa !11
  %8 = getelementptr inbounds nuw i8, ptr %.03639, i64 32
  %9 = load <16 x i8>, ptr %8, align 1, !tbaa !11
  %10 = getelementptr inbounds nuw i8, ptr %.03639, i64 48
  %11 = load <16 x i8>, ptr %10, align 1, !tbaa !11
  %12 = shufflevector <16 x i8> %5, <16 x i8> poison, <16 x i32> <i32 0, i32 1, i32 2, i32 4, i32 5, i32 6, i32 8, i32 9, i32 10, i32 12, i32 13, i32 14, i32 poison, i32 poison, i32 poison, i32 poison>
  %13 = shufflevector <16 x i8> %7, <16 x i8> <i8 0, i8 poison, i8 poison, i8 poison, i8 poison, i8 poison, i8 poison, i8 poison, i8 poison, i8 poison, i8 poison, i8 poison, i8 poison, i8 poison, i8 poison, i8 poison>, <16 x i32> <i32 5, i32 6, i32 8, i32 9, i32 10, i32 12, i32 13, i32 14, i32 16, i32 16, i32 16, i32 16, i32 0, i32 1, i32 2, i32 4>
  %14 = shufflevector <16 x i8> %9, <16 x i8> <i8 0, i8 poison, i8 poison, i8 poison, i8 poison, i8 poison, i8 poison, i8 poison, i8 poison, i8 poison, i8 poison, i8 poison, i8 poison, i8 poison, i8 poison, i8 poison>, <16 x i32> <i32 10, i32 12, i32 13, i32 14, i32 16, i32 16, i32 16, i32 16, i32 0, i32 1, i32 2, i32 4, i32 5, i32 6, i32 8, i32 9>
  %15 = shufflevector <16 x i8> %11, <16 x i8> poison, <16 x i32> <i32 poison, i32 poison, i32 poison, i32 poison, i32 0, i32 1, i32 2, i32 4, i32 5, i32 6, i32 8, i32 9, i32 10, i32 12, i32 13, i32 14>
  %16 = shufflevector <16 x i8> %12, <16 x i8> %13, <16 x i32> <i32 0, i32 1, i32 2, i32 3, i32 4, i32 5, i32 6, i32 7, i32 8, i32 9, i32 10, i32 11, i32 28, i32 29, i32 30, i32 31>
  %17 = shufflevector <16 x i8> %13, <16 x i8> %14, <16 x i32> <i32 0, i32 1, i32 2, i32 3, i32 4, i32 5, i32 6, i32 7, i32 24, i32 25, i32 26, i32 27, i32 28, i32 29, i32 30, i32 31>
  %18 = shufflevector <16 x i8> %14, <16 x i8> %15, <16 x i32> <i32 0, i32 1, i32 2, i32 3, i32 20, i32 21, i32 22, i32 23, i32 24, i32 25, i32 26, i32 27, i32 28, i32 29, i32 30, i32 31>
  store <16 x i8> %16, ptr %.03738, align 1, !tbaa !11
  %19 = getelementptr inbounds nuw i8, ptr %.03738, i64 16
  store <16 x i8> %17, ptr %19, align 1, !tbaa !11
  %20 = getelementptr inbounds nuw i8, ptr %.03738, i64 32
  store <16 x i8> %18, ptr %20, align 1, !tbaa !11
  %21 = getelementptr inbounds nuw i8, ptr %.03639, i64 64
  %22 = getelementptr inbounds nuw i8, ptr %.03738, i64 48
  %23 = add nsw i32 %.040, -16
  %24 = icmp samesign ugt i32 %.040, 31
  br i1 %24, label %.lr.ph, label %._crit_edge, !llvm.loop !15

._crit_edge:                                      ; preds = %.lr.ph, %3
  %.037.lcssa = phi ptr [ %2, %3 ], [ %22, %.lr.ph ]
  %.036.lcssa = phi ptr [ %0, %3 ], [ %21, %.lr.ph ]
  %.0.lcssa = phi i32 [ %1, %3 ], [ %23, %.lr.ph ]
  %25 = icmp sgt i32 %.0.lcssa, 0
  br i1 %25, label %26, label %27

26:                                               ; preds = %._crit_edge
  tail call void @VP8LConvertBGRAToBGR_C(ptr noundef %.036.lcssa, i32 noundef %.0.lcssa, ptr noundef %.037.lcssa) #4
  br label %27

27:                                               ; preds = %26, %._crit_edge
  ret void
}